target datalayout = "e-m:e-p270:32:32-p271:32:32-p272:64:64-i64:64-i128:128-f80:128-n8:16:32:64-S128"
target triple = "x86_64-pc-linux-gnu"

; Function Attrs: mustprogress uwtable
define linkonce_odr void @_ZN5Ipopt6Vector3SetEd(ptr noundef nonnull align 8 dereferenceable(205) %0, double noundef %1) #0 comdat align 2 {
  %3 = alloca ptr, align 8
  %4 = alloca double, align 8
  store ptr %0, ptr %3, align 8
  store double %1, ptr %4, align 8
  %5 = load ptr, ptr %3, align 8
  %6 = load double, ptr %4, align 8
  %7 = load ptr, ptr %5, align 8
  %8 = getelementptr inbounds ptr, ptr %7, i64 9
  %9 = load ptr, ptr %8, align 8
  call void %9(ptr noundef nonnull align 8 dereferenceable(205) %5, double noundef %6)
  call void @_ZN5Ipopt12TaggedObject13ObjectChangedEv(ptr noundef nonnull align 8 dereferenceable(56) %5)
  ret void
}

; Function Attrs: mustprogress uwtable
define void @_ZNK5Ipopt13ZeroSymMatrix14MultVectorImplEdRKNS_6VectorEdRS1_(ptr noundef nonnull align 8 dereferenceable(80) %0, double noundef %1, ptr noundef nonnull align 8 dereferenceable(205) %2, double noundef %3, ptr noundef nonnull align 8 dereferenceable(205) %4) unnamed_addr #0 align 2 {
  %6 = alloca ptr, align 8
  %7 = alloca double, align 8
  %8 = alloca ptr, align 8
  %9 = alloca double, align 8
  %10 = alloca ptr, align 8
  store ptr %0, ptr %6, align 8
  store double %1, ptr %7, align 8
  store ptr %2, ptr %8, align 8
  store double %3, ptr %9, align 8
  store ptr %4, ptr %10, align 8
  %11 = load double, ptr %9, align 8
  %12 = fcmp une double %11, 0.000000e+00
  br i1 %12, label %13, label %16

13:                                               ; preds = %5
  %14 = load ptr, ptr %10, align 8
  %15 = load double, ptr %9, align 8
  call void @_ZN5Ipopt6Vector4ScalEd(ptr noundef nonnull align 8 dereferenceable(205) %14, double noundef %15)
  br label %18

16:                                               ; preds = %5
  %17 = load ptr, ptr %10, align 8
  call void @_ZN5Ipopt6Vector3SetEd(ptr noundef nonnull align 8 dereferenceable(205) %17, double noundef 0.000000e+00)
  br label %18

18:                                               ; preds = %16, %13
  ret void
}